; Function Attrs: nounwind uwtable
define range(i32 -2147483648, 2147483647) i32 @collectSafetyInvariantPOIndex(ptr noundef readonly captures(none) %0) local_unnamed_addr #2 {
  %2 = getelementptr i8, ptr %0, i64 48
  %.val9 = load ptr, ptr %2, align 8, !tbaa !50
  %3 = getelementptr i8, ptr %.val9, i64 4
  %.val.val10 = load i32, ptr %3, align 4, !tbaa !26
  %4 = icmp sgt i32 %.val.val10, 0
  br i1 %4, label %.lr.ph, label %.critedge

.lr.ph:                                           ; preds = %1, %10
  %indvars.iv = phi i64 [ %indvars.iv.next, %10 ], [ 0, %1 ]
  %.val12 = phi ptr [ %.val, %10 ], [ %.val9, %1 ]
  %5 = getelementptr i8, ptr %.val12, i64 8
  %.val8.val = load ptr, ptr %5, align 8, !tbaa !21
  %6 = getelementptr inbounds nuw ptr, ptr %.val8.val, i64 %indvars.iv
  %7 = load ptr, ptr %6, align 8, !tbaa !23
  %8 = tail call ptr @Abc_ObjName(ptr noundef %7) #17
  %9 = tail call ptr @strstr(ptr noundef nonnull dereferenceable(1) %8, ptr noundef nonnull dereferenceable(1) @.str.5) #18
  %.not = icmp eq ptr %9, null
  br i1 %.not, label %10, label %.critedge.loopexit.split.loop.exit16

10:                                               ; preds = %.lr.ph
  %indvars.iv.next = add nuw nsw i64 %indvars.iv, 1
  %.val = load ptr, ptr %2, align 8, !tbaa !50
  %11 = getelementptr i8, ptr %.val, i64 4
  %.val.val = load i32, ptr %11, align 4, !tbaa !26
  %12 = sext i32 %.val.val to i64
  %13 = icmp slt i64 %indvars.iv.next, %12
  br i1 %13, label %.lr.ph, label %.critedge, !llvm.loop !62

.critedge.loopexit.split.loop.exit16:             ; preds = %.lr.ph
  %14 = trunc nuw nsw i64 %indvars.iv to i32
  br label %.critedge

.critedge:                                        ; preds = %10, %.critedge.loopexit.split.loop.exit16, %1
  %.07 = phi i32 [ -1, %1 ], [ %14, %.critedge.loopexit.split.loop.exit16 ], [ -1, %10 ]
  ret i32 %.07
}